; Function Attrs: mustprogress nofree norecurse nosync nounwind willreturn memory(argmem: write) uwtable
define internal noundef i32 @cid_get_is_cid(ptr readnone captures(none) %0, ptr noundef writeonly %1) #7 {
  %.not = icmp eq ptr %1, null
  br i1 %.not, label %4, label %3

3:                                                ; preds = %2
  store i8 1, ptr %1, align 1
  br label %4

4:                                                ; preds = %3, %2
  ret i32 0
}